target datalayout = "e-m:e-p270:32:32-p271:32:32-p272:64:64-i64:64-i128:128-f80:128-n8:16:32:64-S128"
target triple = "x86_64-pc-linux-gnu"

%struct.Curl_cwtype = type { ptr, ptr, ptr, ptr, ptr, i64 }

@general_unencoders = internal constant [4 x ptr] [ptr @identity_encoding, ptr @deflate_encoding, ptr @gzip_encoding, ptr null], align 16
@.str = private unnamed_addr constant [9 x i8] c"identity\00", align 1

; Function Attrs: nounwind uwtable
define dso_local void @Curl_all_content_encodings(ptr noundef %0, i64 noundef %1) #0 {
  %3 = alloca ptr, align 8
  %4 = alloca i64, align 8
  %5 = alloca i64, align 8
  %6 = alloca ptr, align 8
  %7 = alloca ptr, align 8
  %8 = alloca ptr, align 8
  store ptr %0, ptr %3, align 8, !tbaa !4
  store i64 %1, ptr %4, align 8, !tbaa !9
  call void @llvm.lifetime.start.p0(i64 8, ptr %5) #6
  store i64 0, ptr %5, align 8, !tbaa !9
  call void @llvm.lifetime.start.p0(i64 8, ptr %6) #6
  call void @llvm.lifetime.start.p0(i64 8, ptr %7) #6
  br label %9

9:                                                ; preds = %2
  br label %10

10:                                               ; preds = %9
  br label %11

11:                                               ; preds = %10
  br label %12

12:                                               ; preds = %11
  br label %13

13:                                               ; preds = %12
  br label %14

14:                                               ; preds = %13
  %15 = load ptr, ptr %3, align 8, !tbaa !4
  %16 = getelementptr inbounds i8, ptr %15, i64 0
  store i8 0, ptr %16, align 1, !tbaa !11
  store ptr @general_unencoders, ptr %6, align 8, !tbaa !12
  br label %17

17:                                               ; preds = %38, %14
  %18 = load ptr, ptr %6, align 8, !tbaa !12
  %19 = load ptr, ptr %18, align 8, !tbaa !14
  %20 = icmp ne ptr %19, null
  br i1 %20, label %21, label %41

21:                                               ; preds = %17
  %22 = load ptr, ptr %6, align 8, !tbaa !12
  %23 = load ptr, ptr %22, align 8, !tbaa !14
  store ptr %23, ptr %7, align 8, !tbaa !14
  %24 = load ptr, ptr %7, align 8, !tbaa !14
  %25 = getelementptr inbounds nuw %struct.Curl_cwtype, ptr %24, i32 0, i32 0
  %26 = load ptr, ptr %25, align 8, !tbaa !16
  %27 = call i32 @curl_strequal(ptr noundef %26, ptr noundef @.str)
  %28 = icmp ne i32 %27, 0
  br i1 %28, label %37, label %29

29:                                               ; preds = %21
  %30 = load ptr, ptr %7, align 8, !tbaa !14
  %31 = getelementptr inbounds nuw %struct.Curl_cwtype, ptr %30, i32 0, i32 0
  %32 = load ptr, ptr %31, align 8, !tbaa !16
  %33 = call i64 @strlen(ptr noundef %32) #7
  %34 = add i64 %33, 2
  %35 = load i64, ptr %5, align 8, !tbaa !9
  %36 = add i64 %35, %34
  store i64 %36, ptr %5, align 8, !tbaa !9
  br label %37

37:                                               ; preds = %29, %21
  br label %38

38:                                               ; preds = %37
  %39 = load ptr, ptr %6, align 8, !tbaa !12
  %40 = getelementptr inbounds nuw ptr, ptr %39, i32 1
  store ptr %40, ptr %6, align 8, !tbaa !12
  br label %17, !llvm.loop !18

41:                                               ; preds = %17
  %42 = load i64, ptr %5, align 8, !tbaa !9
  %43 = icmp ne i64 %42, 0
  br i1 %43, label %51, label %44

44:                                               ; preds = %41
  %45 = load i64, ptr %4, align 8, !tbaa !9
  %46 = icmp uge i64 %45, 9
  br i1 %46, label %47, label %50

47:                                               ; preds = %44
  %48 = load ptr, ptr %3, align 8, !tbaa !4
  %49 = call ptr @strcpy(ptr noundef %48, ptr noundef @.str) #6
  br label %50

50:                                               ; preds = %47, %44
  br label %91

51:                                               ; preds = %41
  %52 = load i64, ptr %4, align 8, !tbaa !9
  %53 = load i64, ptr %5, align 8, !tbaa !9
  %54 = icmp ugt i64 %52, %53
  br i1 %54, label %55, label %90

55:                                               ; preds = %51
  call void @llvm.lifetime.start.p0(i64 8, ptr %8) #6
  %56 = load ptr, ptr %3, align 8, !tbaa !4
  store ptr %56, ptr %8, align 8, !tbaa !4
  store ptr @general_unencoders, ptr %6, align 8, !tbaa !12
  br label %57

57:                                               ; preds = %84, %55
  %58 = load ptr, ptr %6, align 8, !tbaa !12
  %59 = load ptr, ptr %58, align 8, !tbaa !14
  %60 = icmp ne ptr %59, null
  br i1 %60, label %61, label %87

61:                                               ; preds = %57
  %62 = load ptr, ptr %6, align 8, !tbaa !12
  %63 = load ptr, ptr %62, align 8, !tbaa !14
  store ptr %63, ptr %7, align 8, !tbaa !14
  %64 = load ptr, ptr %7, align 8, !tbaa !14
  %65 = getelementptr inbounds nuw %struct.Curl_cwtype, ptr %64, i32 0, i32 0
  %66 = load ptr, ptr %65, align 8, !tbaa !16
  %67 = call i32 @curl_strequal(ptr noundef %66, ptr noundef @.str)
  %68 = icmp ne i32 %67, 0
  br i1 %68, label %83, label %69

69:                                               ; preds = %61
  %70 = load ptr, ptr %8, align 8, !tbaa !4
  %71 = load ptr, ptr %7, align 8, !tbaa !14
  %72 = getelementptr inbounds nuw %struct.Curl_cwtype, ptr %71, i32 0, i32 0
  %73 = load ptr, ptr %72, align 8, !tbaa !16
  %74 = call ptr @strcpy(ptr noundef %70, ptr noundef %73) #6
  %75 = load ptr, ptr %8, align 8, !tbaa !4
  %76 = call i64 @strlen(ptr noundef %75) #7
  %77 = load ptr, ptr %8, align 8, !tbaa !4
  %78 = getelementptr inbounds nuw i8, ptr %77, i64 %76
  store ptr %78, ptr %8, align 8, !tbaa !4
  %79 = load ptr, ptr %8, align 8, !tbaa !4
  %80 = getelementptr inbounds nuw i8, ptr %79, i32 1
  store ptr %80, ptr %8, align 8, !tbaa !4
  store i8 44, ptr %79, align 1, !tbaa !11
  %81 = load ptr, ptr %8, align 8, !tbaa !4
  %82 = getelementptr inbounds nuw i8, ptr %81, i32 1
  store ptr %82, ptr %8, align 8, !tbaa !4
  store i8 32, ptr %81, align 1, !tbaa !11
  br label %83

83:                                               ; preds = %69, %61
  br label %84

84:                                               ; preds = %83
  %85 = load ptr, ptr %6, align 8, !tbaa !12
  %86 = getelementptr inbounds nuw ptr, ptr %85, i32 1
  store ptr %86, ptr %6, align 8, !tbaa !12
  br label %57, !llvm.loop !20

87:                                               ; preds = %57
  %88 = load ptr, ptr %8, align 8, !tbaa !4
  %89 = getelementptr inbounds i8, ptr %88, i64 -2
  store i8 0, ptr %89, align 1, !tbaa !11
  call void @llvm.lifetime.end.p0(i64 8, ptr %8) #6
  br label %90

90:                                               ; preds = %87, %51
  br label %91

91:                                               ; preds = %90, %50
  call void @llvm.lifetime.end.p0(i64 8, ptr %7) #6
  call void @llvm.lifetime.end.p0(i64 8, ptr %6) #6
  call void @llvm.lifetime.end.p0(i64 8, ptr %5) #6
  ret void
}