; Function Attrs: nounwind uwtable
define dso_local void @Curl_all_content_encodings(ptr noundef initializes((0, 1)) %0, i64 noundef %1) local_unnamed_addr #0 {
  store i8 0, ptr %0, align 1, !tbaa !4
  br label %3

3:                                                ; preds = %2, %12
  %4 = phi ptr [ @identity_encoding, %2 ], [ %14, %12 ]
  %.02334 = phi ptr [ @general_unencoders, %2 ], [ %13, %12 ]
  %.02533 = phi i64 [ 0, %2 ], [ %.126, %12 ]
  %5 = load ptr, ptr %4, align 8, !tbaa !7
  %6 = tail call i32 @curl_strequal(ptr noundef %5, ptr noundef nonnull @.str) #8
  %.not32 = icmp eq i32 %6, 0
  br i1 %.not32, label %7, label %12

7:                                                ; preds = %3
  %8 = load ptr, ptr %4, align 8, !tbaa !7
  %9 = tail call i64 @strlen(ptr noundef nonnull dereferenceable(1) %8) #9
  %10 = add i64 %.02533, 2
  %11 = add i64 %10, %9
  br label %12

12:                                               ; preds = %3, %7
  %.126 = phi i64 [ %.02533, %3 ], [ %11, %7 ]
  %13 = getelementptr inbounds nuw i8, ptr %.02334, i64 8
  %14 = load ptr, ptr %13, align 8, !tbaa !12
  %.not = icmp eq ptr %14, null
  br i1 %.not, label %15, label %3, !llvm.loop !14

15:                                               ; preds = %12
  %.not29 = icmp eq i64 %.126, 0
  br i1 %.not29, label %16, label %19

16:                                               ; preds = %15
  %17 = icmp ugt i64 %1, 8
  br i1 %17, label %18, label %36

18:                                               ; preds = %16
  tail call void @llvm.memcpy.p0.p0.i64(ptr noundef nonnull align 1 dereferenceable(9) %0, ptr noundef nonnull align 1 dereferenceable(9) @.str, i64 9, i1 false) #8
  br label %36

19:                                               ; preds = %15
  %20 = icmp ugt i64 %1, %.126
  br i1 %20, label %.preheader, label %36

.preheader:                                       ; preds = %19, %31
  %21 = phi ptr [ %33, %31 ], [ @identity_encoding, %19 ]
  %.036 = phi ptr [ %.1, %31 ], [ %0, %19 ]
  %.12435 = phi ptr [ %32, %31 ], [ @general_unencoders, %19 ]
  %22 = load ptr, ptr %21, align 8, !tbaa !7
  %23 = tail call i32 @curl_strequal(ptr noundef %22, ptr noundef nonnull @.str) #8
  %.not31 = icmp eq i32 %23, 0
  br i1 %.not31, label %24, label %31

24:                                               ; preds = %.preheader
  %25 = load ptr, ptr %21, align 8, !tbaa !7
  %26 = tail call ptr @strcpy(ptr noundef nonnull dereferenceable(1) %.036, ptr noundef nonnull dereferenceable(1) %25) #8
  %27 = tail call i64 @strlen(ptr noundef nonnull dereferenceable(1) %.036) #9
  %28 = getelementptr inbounds nuw i8, ptr %.036, i64 %27
  %29 = getelementptr inbounds nuw i8, ptr %28, i64 1
  store i8 44, ptr %28, align 1, !tbaa !4
  %30 = getelementptr inbounds nuw i8, ptr %28, i64 2
  store i8 32, ptr %29, align 1, !tbaa !4
  br label %31

31:                                               ; preds = %.preheader, %24
  %.1 = phi ptr [ %.036, %.preheader ], [ %30, %24 ]
  %32 = getelementptr inbounds nuw i8, ptr %.12435, i64 8
  %33 = load ptr, ptr %32, align 8, !tbaa !12
  %.not30 = icmp eq ptr %33, null
  br i1 %.not30, label %34, label %.preheader, !llvm.loop !16

34:                                               ; preds = %31
  %35 = getelementptr inbounds i8, ptr %.1, i64 -2
  store i8 0, ptr %35, align 1, !tbaa !4
  br label %36

36:                                               ; preds = %19, %34, %16, %18
  ret void
}